target datalayout = "e-m:e-p270:32:32-p271:32:32-p272:64:64-i64:64-i128:128-f80:128-n8:16:32:64-S128"
target triple = "x86_64-pc-linux-gnu"

%struct.anon.21 = type { i8 }
%struct.hb_atomic_int_t = type { i32 }
%struct.hb_bit_set_t = type { i8, i32, %struct.hb_atomic_int_t, %struct.hb_vector_t.23, %struct.hb_vector_t.24 }
%struct.hb_vector_t.23 = type { i32, i32, ptr }
%struct.hb_vector_t.24 = type { i32, i32, ptr }

@_ZL7hb_swap = internal constant %struct.anon.21 zeroinitializer, align 1

; Function Attrs: inlinehint mustprogress nounwind uwtable
define linkonce_odr dso_local void @_ZSt4swapIP13hb_bit_page_tENSt9enable_ifIXsr6__and_ISt6__not_ISt15__is_tuple_likeIT_EESt21is_move_constructibleIS5_ESt18is_move_assignableIS5_EEE5valueEvE4typeERS5_SE_(ptr noundef nonnull align 8 dereferenceable(8) %0, ptr noundef nonnull align 8 dereferenceable(8) %1) #2 comdat {
  %3 = alloca ptr, align 8
  %4 = alloca ptr, align 8
  %5 = alloca ptr, align 8
  store ptr %0, ptr %3, align 8, !tbaa !969
  store ptr %1, ptr %4, align 8, !tbaa !969
  call void @llvm.lifetime.start.p0(i64 8, ptr %5) #14
  %6 = load ptr, ptr %3, align 8, !tbaa !969
  %7 = load ptr, ptr %6, align 8, !tbaa !224
  store ptr %7, ptr %5, align 8, !tbaa !224
  %8 = load ptr, ptr %4, align 8, !tbaa !969
  %9 = load ptr, ptr %8, align 8, !tbaa !224
  %10 = load ptr, ptr %3, align 8, !tbaa !969
  store ptr %9, ptr %10, align 8, !tbaa !224
  %11 = load ptr, ptr %5, align 8, !tbaa !224
  %12 = load ptr, ptr %4, align 8, !tbaa !969
  store ptr %11, ptr %12, align 8, !tbaa !224
  call void @llvm.lifetime.end.p0(i64 8, ptr %5) #14
  ret void
}

; Function Attrs: inlinehint mustprogress nounwind uwtable
define linkonce_odr dso_local void @_ZSt4swapIPN12hb_bit_set_t10page_map_tEENSt9enable_ifIXsr6__and_ISt6__not_ISt15__is_tuple_likeIT_EESt21is_move_constructibleIS6_ESt18is_move_assignableIS6_EEE5valueEvE4typeERS6_SF_(ptr noundef nonnull align 8 dereferenceable(8) %0, ptr noundef nonnull align 8 dereferenceable(8) %1) #2 comdat {
  %3 = alloca ptr, align 8
  %4 = alloca ptr, align 8
  %5 = alloca ptr, align 8
  store ptr %0, ptr %3, align 8, !tbaa !967
  store ptr %1, ptr %4, align 8, !tbaa !967
  call void @llvm.lifetime.start.p0(i64 8, ptr %5) #14
  %6 = load ptr, ptr %3, align 8, !tbaa !967
  %7 = load ptr, ptr %6, align 8, !tbaa !219
  store ptr %7, ptr %5, align 8, !tbaa !219
  %8 = load ptr, ptr %4, align 8, !tbaa !967
  %9 = load ptr, ptr %8, align 8, !tbaa !219
  %10 = load ptr, ptr %3, align 8, !tbaa !967
  store ptr %9, ptr %10, align 8, !tbaa !219
  %11 = load ptr, ptr %5, align 8, !tbaa !219
  %12 = load ptr, ptr %4, align 8, !tbaa !967
  store ptr %11, ptr %12, align 8, !tbaa !219
  call void @llvm.lifetime.end.p0(i64 8, ptr %5) #14
  ret void
}

; Function Attrs: inlinehint mustprogress nounwind uwtable
define linkonce_odr dso_local void @_ZSt4swapIiENSt9enable_ifIXsr6__and_ISt6__not_ISt15__is_tuple_likeIT_EESt21is_move_constructibleIS3_ESt18is_move_assignableIS3_EEE5valueEvE4typeERS3_SC_(ptr noundef nonnull align 4 dereferenceable(4) %0, ptr noundef nonnull align 4 dereferenceable(4) %1) #2 comdat {
  %3 = alloca ptr, align 8
  %4 = alloca ptr, align 8
  %5 = alloca i32, align 4
  store ptr %0, ptr %3, align 8, !tbaa !32
  store ptr %1, ptr %4, align 8, !tbaa !32
  call void @llvm.lifetime.start.p0(i64 4, ptr %5) #14
  %6 = load ptr, ptr %3, align 8, !tbaa !32
  %7 = load i32, ptr %6, align 4, !tbaa !4
  store i32 %7, ptr %5, align 4, !tbaa !4
  %8 = load ptr, ptr %4, align 8, !tbaa !32
  %9 = load i32, ptr %8, align 4, !tbaa !4
  %10 = load ptr, ptr %3, align 8, !tbaa !32
  store i32 %9, ptr %10, align 4, !tbaa !4
  %11 = load i32, ptr %5, align 4, !tbaa !4
  %12 = load ptr, ptr %4, align 8, !tbaa !32
  store i32 %11, ptr %12, align 4, !tbaa !4
  call void @llvm.lifetime.end.p0(i64 4, ptr %5) #14
  ret void
}

; Function Attrs: mustprogress nounwind uwtable
define internal void @"_ZNK3$_9clIP13hb_bit_page_tEEvRT_S4_"(ptr noundef nonnull align 1 dereferenceable(1) %0, ptr noundef nonnull align 8 dereferenceable(8) %1, ptr noundef nonnull align 8 dereferenceable(8) %2) #0 align 2 {
  %4 = alloca ptr, align 8
  %5 = alloca ptr, align 8
  %6 = alloca ptr, align 8
  store ptr %0, ptr %4, align 8, !tbaa !31
  store ptr %1, ptr %5, align 8, !tbaa !969
  store ptr %2, ptr %6, align 8, !tbaa !969
  %7 = load ptr, ptr %5, align 8, !tbaa !969
  %8 = load ptr, ptr %6, align 8, !tbaa !969
  call void @_ZSt4swapIP13hb_bit_page_tENSt9enable_ifIXsr6__and_ISt6__not_ISt15__is_tuple_likeIT_EESt21is_move_constructibleIS5_ESt18is_move_assignableIS5_EEE5valueEvE4typeERS5_SE_(ptr noundef nonnull align 8 dereferenceable(8) %7, ptr noundef nonnull align 8 dereferenceable(8) %8) #14
  ret void
}

; Function Attrs: mustprogress nounwind uwtable
define internal void @"_ZNK3$_9clIPN12hb_bit_set_t10page_map_tEEEvRT_S5_"(ptr noundef nonnull align 1 dereferenceable(1) %0, ptr noundef nonnull align 8 dereferenceable(8) %1, ptr noundef nonnull align 8 dereferenceable(8) %2) #0 align 2 {
  %4 = alloca ptr, align 8
  %5 = alloca ptr, align 8
  %6 = alloca ptr, align 8
  store ptr %0, ptr %4, align 8, !tbaa !31
  store ptr %1, ptr %5, align 8, !tbaa !967
  store ptr %2, ptr %6, align 8, !tbaa !967
  %7 = load ptr, ptr %5, align 8, !tbaa !967
  %8 = load ptr, ptr %6, align 8, !tbaa !967
  call void @_ZSt4swapIPN12hb_bit_set_t10page_map_tEENSt9enable_ifIXsr6__and_ISt6__not_ISt15__is_tuple_likeIT_EESt21is_move_constructibleIS6_ESt18is_move_assignableIS6_EEE5valueEvE4typeERS6_SF_(ptr noundef nonnull align 8 dereferenceable(8) %7, ptr noundef nonnull align 8 dereferenceable(8) %8) #14
  ret void
}

; Function Attrs: mustprogress nounwind uwtable
define internal void @"_ZNK3$_9clIiEEvRT_S2_"(ptr noundef nonnull align 1 dereferenceable(1) %0, ptr noundef nonnull align 4 dereferenceable(4) %1, ptr noundef nonnull align 4 dereferenceable(4) %2) #0 align 2 {
  %4 = alloca ptr, align 8
  %5 = alloca ptr, align 8
  %6 = alloca ptr, align 8
  store ptr %0, ptr %4, align 8, !tbaa !31
  store ptr %1, ptr %5, align 8, !tbaa !32
  store ptr %2, ptr %6, align 8, !tbaa !32
  %7 = load ptr, ptr %5, align 8, !tbaa !32
  %8 = load ptr, ptr %6, align 8, !tbaa !32
  call void @_ZSt4swapIiENSt9enable_ifIXsr6__and_ISt6__not_ISt15__is_tuple_likeIT_EESt21is_move_constructibleIS3_ESt18is_move_assignableIS3_EEE5valueEvE4typeERS3_SC_(ptr noundef nonnull align 4 dereferenceable(4) %7, ptr noundef nonnull align 4 dereferenceable(4) %8) #14
  ret void
}

; Function Attrs: mustprogress nounwind uwtable
define linkonce_odr dso_local void @_Z4swapR11hb_vector_tI13hb_bit_page_tLb0EES2_(ptr noundef nonnull align 8 dereferenceable(16) %0, ptr noundef nonnull align 8 dereferenceable(16) %1) #0 comdat {
  %3 = alloca ptr, align 8
  %4 = alloca ptr, align 8
  store ptr %0, ptr %3, align 8, !tbaa !213
  store ptr %1, ptr %4, align 8, !tbaa !213
  %5 = load ptr, ptr %3, align 8, !tbaa !213
  %6 = getelementptr inbounds nuw %struct.hb_vector_t.24, ptr %5, i32 0, i32 0
  %7 = load ptr, ptr %4, align 8, !tbaa !213
  %8 = getelementptr inbounds nuw %struct.hb_vector_t.24, ptr %7, i32 0, i32 0
  call void @"_ZNK3$_9clIiEEvRT_S2_"(ptr noundef nonnull align 1 dereferenceable(1) @_ZL7hb_swap, ptr noundef nonnull align 4 dereferenceable(4) %6, ptr noundef nonnull align 4 dereferenceable(4) %8)
  %9 = load ptr, ptr %3, align 8, !tbaa !213
  %10 = getelementptr inbounds nuw %struct.hb_vector_t.24, ptr %9, i32 0, i32 1
  %11 = load ptr, ptr %4, align 8, !tbaa !213
  %12 = getelementptr inbounds nuw %struct.hb_vector_t.24, ptr %11, i32 0, i32 1
  call void @"_ZNK3$_9clIjEEvRT_S2_"(ptr noundef nonnull align 1 dereferenceable(1) @_ZL7hb_swap, ptr noundef nonnull align 4 dereferenceable(4) %10, ptr noundef nonnull align 4 dereferenceable(4) %12)
  %13 = load ptr, ptr %3, align 8, !tbaa !213
  %14 = getelementptr inbounds nuw %struct.hb_vector_t.24, ptr %13, i32 0, i32 2
  %15 = load ptr, ptr %4, align 8, !tbaa !213
  %16 = getelementptr inbounds nuw %struct.hb_vector_t.24, ptr %15, i32 0, i32 2
  call void @"_ZNK3$_9clIP13hb_bit_page_tEEvRT_S4_"(ptr noundef nonnull align 1 dereferenceable(1) @_ZL7hb_swap, ptr noundef nonnull align 8 dereferenceable(8) %14, ptr noundef nonnull align 8 dereferenceable(8) %16)
  ret void
}

; Function Attrs: mustprogress nounwind uwtable
define linkonce_odr dso_local void @_Z4swapR11hb_vector_tIN12hb_bit_set_t10page_map_tELb1EES3_(ptr noundef nonnull align 8 dereferenceable(16) %0, ptr noundef nonnull align 8 dereferenceable(16) %1) #0 comdat {
  %3 = alloca ptr, align 8
  %4 = alloca ptr, align 8
  store ptr %0, ptr %3, align 8, !tbaa !208
  store ptr %1, ptr %4, align 8, !tbaa !208
  %5 = load ptr, ptr %3, align 8, !tbaa !208
  %6 = getelementptr inbounds nuw %struct.hb_vector_t.23, ptr %5, i32 0, i32 0
  %7 = load ptr, ptr %4, align 8, !tbaa !208
  %8 = getelementptr inbounds nuw %struct.hb_vector_t.23, ptr %7, i32 0, i32 0
  call void @"_ZNK3$_9clIiEEvRT_S2_"(ptr noundef nonnull align 1 dereferenceable(1) @_ZL7hb_swap, ptr noundef nonnull align 4 dereferenceable(4) %6, ptr noundef nonnull align 4 dereferenceable(4) %8)
  %9 = load ptr, ptr %3, align 8, !tbaa !208
  %10 = getelementptr inbounds nuw %struct.hb_vector_t.23, ptr %9, i32 0, i32 1
  %11 = load ptr, ptr %4, align 8, !tbaa !208
  %12 = getelementptr inbounds nuw %struct.hb_vector_t.23, ptr %11, i32 0, i32 1
  call void @"_ZNK3$_9clIjEEvRT_S2_"(ptr noundef nonnull align 1 dereferenceable(1) @_ZL7hb_swap, ptr noundef nonnull align 4 dereferenceable(4) %10, ptr noundef nonnull align 4 dereferenceable(4) %12)
  %13 = load ptr, ptr %3, align 8, !tbaa !208
  %14 = getelementptr inbounds nuw %struct.hb_vector_t.23, ptr %13, i32 0, i32 2
  %15 = load ptr, ptr %4, align 8, !tbaa !208
  %16 = getelementptr inbounds nuw %struct.hb_vector_t.23, ptr %15, i32 0, i32 2
  call void @"_ZNK3$_9clIPN12hb_bit_set_t10page_map_tEEEvRT_S5_"(ptr noundef nonnull align 1 dereferenceable(1) @_ZL7hb_swap, ptr noundef nonnull align 8 dereferenceable(8) %14, ptr noundef nonnull align 8 dereferenceable(8) %16)
  ret void
}

; Function Attrs: inlinehint mustprogress nounwind uwtable
define linkonce_odr dso_local void @_ZSt4swapI15hb_atomic_int_tENSt9enable_ifIXsr6__and_ISt6__not_ISt15__is_tuple_likeIT_EESt21is_move_constructibleIS4_ESt18is_move_assignableIS4_EEE5valueEvE4typeERS4_SD_(ptr noundef nonnull align 4 dereferenceable(4) %0, ptr noundef nonnull align 4 dereferenceable(4) %1) #2 comdat {
  %3 = alloca ptr, align 8
  %4 = alloca ptr, align 8
  %5 = alloca %struct.hb_atomic_int_t, align 4
  store ptr %0, ptr %3, align 8, !tbaa !147
  store ptr %1, ptr %4, align 8, !tbaa !147
  call void @llvm.lifetime.start.p0(i64 4, ptr %5) #14
  %6 = load ptr, ptr %3, align 8, !tbaa !147
  call void @llvm.memcpy.p0.p0.i64(ptr align 4 %5, ptr align 4 %6, i64 4, i1 false), !tbaa.struct !966
  %7 = load ptr, ptr %4, align 8, !tbaa !147
  %8 = load ptr, ptr %3, align 8, !tbaa !147
  call void @llvm.memcpy.p0.p0.i64(ptr align 4 %8, ptr align 4 %7, i64 4, i1 false), !tbaa.struct !966
  %9 = load ptr, ptr %4, align 8, !tbaa !147
  call void @llvm.memcpy.p0.p0.i64(ptr align 4 %9, ptr align 4 %5, i64 4, i1 false), !tbaa.struct !966
  call void @llvm.lifetime.end.p0(i64 4, ptr %5) #14
  ret void
}

; Function Attrs: inlinehint mustprogress nounwind uwtable
define linkonce_odr dso_local void @_ZSt4swapIjENSt9enable_ifIXsr6__and_ISt6__not_ISt15__is_tuple_likeIT_EESt21is_move_constructibleIS3_ESt18is_move_assignableIS3_EEE5valueEvE4typeERS3_SC_(ptr noundef nonnull align 4 dereferenceable(4) %0, ptr noundef nonnull align 4 dereferenceable(4) %1) #2 comdat {
  %3 = alloca ptr, align 8
  %4 = alloca ptr, align 8
  %5 = alloca i32, align 4
  store ptr %0, ptr %3, align 8, !tbaa !32
  store ptr %1, ptr %4, align 8, !tbaa !32
  call void @llvm.lifetime.start.p0(i64 4, ptr %5) #14
  %6 = load ptr, ptr %3, align 8, !tbaa !32
  %7 = load i32, ptr %6, align 4, !tbaa !4
  store i32 %7, ptr %5, align 4, !tbaa !4
  %8 = load ptr, ptr %4, align 8, !tbaa !32
  %9 = load i32, ptr %8, align 4, !tbaa !4
  %10 = load ptr, ptr %3, align 8, !tbaa !32
  store i32 %9, ptr %10, align 4, !tbaa !4
  %11 = load i32, ptr %5, align 4, !tbaa !4
  %12 = load ptr, ptr %4, align 8, !tbaa !32
  store i32 %11, ptr %12, align 4, !tbaa !4
  call void @llvm.lifetime.end.p0(i64 4, ptr %5) #14
  ret void
}

; Function Attrs: mustprogress nounwind uwtable
define internal void @"_ZNK3$_9clI11hb_vector_tI13hb_bit_page_tLb0EEEEvRT_S5_"(ptr noundef nonnull align 1 dereferenceable(1) %0, ptr noundef nonnull align 8 dereferenceable(16) %1, ptr noundef nonnull align 8 dereferenceable(16) %2) #0 align 2 {
  %4 = alloca ptr, align 8
  %5 = alloca ptr, align 8
  %6 = alloca ptr, align 8
  store ptr %0, ptr %4, align 8, !tbaa !31
  store ptr %1, ptr %5, align 8, !tbaa !213
  store ptr %2, ptr %6, align 8, !tbaa !213
  %7 = load ptr, ptr %5, align 8, !tbaa !213
  %8 = load ptr, ptr %6, align 8, !tbaa !213
  call void @_Z4swapR11hb_vector_tI13hb_bit_page_tLb0EES2_(ptr noundef nonnull align 8 dereferenceable(16) %7, ptr noundef nonnull align 8 dereferenceable(16) %8) #14
  ret void
}

; Function Attrs: mustprogress nounwind uwtable
define internal void @"_ZNK3$_9clI11hb_vector_tIN12hb_bit_set_t10page_map_tELb1EEEEvRT_S6_"(ptr noundef nonnull align 1 dereferenceable(1) %0, ptr noundef nonnull align 8 dereferenceable(16) %1, ptr noundef nonnull align 8 dereferenceable(16) %2) #0 align 2 {
  %4 = alloca ptr, align 8
  %5 = alloca ptr, align 8
  %6 = alloca ptr, align 8
  store ptr %0, ptr %4, align 8, !tbaa !31
  store ptr %1, ptr %5, align 8, !tbaa !208
  store ptr %2, ptr %6, align 8, !tbaa !208
  %7 = load ptr, ptr %5, align 8, !tbaa !208
  %8 = load ptr, ptr %6, align 8, !tbaa !208
  call void @_Z4swapR11hb_vector_tIN12hb_bit_set_t10page_map_tELb1EES3_(ptr noundef nonnull align 8 dereferenceable(16) %7, ptr noundef nonnull align 8 dereferenceable(16) %8) #14
  ret void
}

; Function Attrs: mustprogress nounwind uwtable
define internal void @"_ZNK3$_9clI15hb_atomic_int_tEEvRT_S3_"(ptr noundef nonnull align 1 dereferenceable(1) %0, ptr noundef nonnull align 4 dereferenceable(4) %1, ptr noundef nonnull align 4 dereferenceable(4) %2) #0 align 2 {
  %4 = alloca ptr, align 8
  %5 = alloca ptr, align 8
  %6 = alloca ptr, align 8
  store ptr %0, ptr %4, align 8, !tbaa !31
  store ptr %1, ptr %5, align 8, !tbaa !147
  store ptr %2, ptr %6, align 8, !tbaa !147
  %7 = load ptr, ptr %5, align 8, !tbaa !147
  %8 = load ptr, ptr %6, align 8, !tbaa !147
  call void @_ZSt4swapI15hb_atomic_int_tENSt9enable_ifIXsr6__and_ISt6__not_ISt15__is_tuple_likeIT_EESt21is_move_constructibleIS4_ESt18is_move_assignableIS4_EEE5valueEvE4typeERS4_SD_(ptr noundef nonnull align 4 dereferenceable(4) %7, ptr noundef nonnull align 4 dereferenceable(4) %8) #14
  ret void
}

; Function Attrs: mustprogress nounwind uwtable
define internal void @"_ZNK3$_9clIjEEvRT_S2_"(ptr noundef nonnull align 1 dereferenceable(1) %0, ptr noundef nonnull align 4 dereferenceable(4) %1, ptr noundef nonnull align 4 dereferenceable(4) %2) #0 align 2 {
  %4 = alloca ptr, align 8
  %5 = alloca ptr, align 8
  %6 = alloca ptr, align 8
  store ptr %0, ptr %4, align 8, !tbaa !31
  store ptr %1, ptr %5, align 8, !tbaa !32
  store ptr %2, ptr %6, align 8, !tbaa !32
  %7 = load ptr, ptr %5, align 8, !tbaa !32
  %8 = load ptr, ptr %6, align 8, !tbaa !32
  call void @_ZSt4swapIjENSt9enable_ifIXsr6__and_ISt6__not_ISt15__is_tuple_likeIT_EESt21is_move_constructibleIS3_ESt18is_move_assignableIS3_EEE5valueEvE4typeERS3_SC_(ptr noundef nonnull align 4 dereferenceable(4) %7, ptr noundef nonnull align 4 dereferenceable(4) %8) #14
  ret void
}

; Function Attrs: mustprogress nounwind uwtable
define linkonce_odr dso_local void @_Z4swapR12hb_bit_set_tS0_(ptr noundef nonnull align 8 dereferenceable(48) %0, ptr noundef nonnull align 8 dereferenceable(48) %1) #0 comdat {
  %3 = alloca ptr, align 8
  %4 = alloca ptr, align 8
  store ptr %0, ptr %3, align 8, !tbaa !204
  store ptr %1, ptr %4, align 8, !tbaa !204
  %5 = load ptr, ptr %3, align 8, !tbaa !204
  %6 = getelementptr inbounds nuw %struct.hb_bit_set_t, ptr %5, i32 0, i32 0
  %7 = load i8, ptr %6, align 8, !tbaa !206, !range !25, !noundef !26
  %8 = trunc i8 %7 to i1
  br i1 %8, label %9, label %15

9:                                                ; preds = %2
  %10 = load ptr, ptr %4, align 8, !tbaa !204
  %11 = getelementptr inbounds nuw %struct.hb_bit_set_t, ptr %10, i32 0, i32 0
  %12 = load i8, ptr %11, align 8, !tbaa !206, !range !25, !noundef !26
  %13 = trunc i8 %12 to i1
  %14 = xor i1 %13, true
  br label %15

15:                                               ; preds = %9, %2
  %16 = phi i1 [ true, %2 ], [ %14, %9 ]
  %17 = zext i1 %16 to i64
  %18 = call i64 @llvm.expect.i64(i64 %17, i64 1)
  %19 = icmp ne i64 %18, 0
  br i1 %19, label %20, label %21

20:                                               ; preds = %15
  br label %38

21:                                               ; preds = %15
  %22 = load ptr, ptr %3, align 8, !tbaa !204
  %23 = getelementptr inbounds nuw %struct.hb_bit_set_t, ptr %22, i32 0, i32 1
  %24 = load ptr, ptr %4, align 8, !tbaa !204
  %25 = getelementptr inbounds nuw %struct.hb_bit_set_t, ptr %24, i32 0, i32 1
  call void @"_ZNK3$_9clIjEEvRT_S2_"(ptr noundef nonnull align 1 dereferenceable(1) @_ZL7hb_swap, ptr noundef nonnull align 4 dereferenceable(4) %23, ptr noundef nonnull align 4 dereferenceable(4) %25)
  %26 = load ptr, ptr %3, align 8, !tbaa !204
  %27 = getelementptr inbounds nuw %struct.hb_bit_set_t, ptr %26, i32 0, i32 2
  %28 = load ptr, ptr %4, align 8, !tbaa !204
  %29 = getelementptr inbounds nuw %struct.hb_bit_set_t, ptr %28, i32 0, i32 2
  call void @"_ZNK3$_9clI15hb_atomic_int_tEEvRT_S3_"(ptr noundef nonnull align 1 dereferenceable(1) @_ZL7hb_swap, ptr noundef nonnull align 4 dereferenceable(4) %27, ptr noundef nonnull align 4 dereferenceable(4) %29)
  %30 = load ptr, ptr %3, align 8, !tbaa !204
  %31 = getelementptr inbounds nuw %struct.hb_bit_set_t, ptr %30, i32 0, i32 3
  %32 = load ptr, ptr %4, align 8, !tbaa !204
  %33 = getelementptr inbounds nuw %struct.hb_bit_set_t, ptr %32, i32 0, i32 3
  call void @"_ZNK3$_9clI11hb_vector_tIN12hb_bit_set_t10page_map_tELb1EEEEvRT_S6_"(ptr noundef nonnull align 1 dereferenceable(1) @_ZL7hb_swap, ptr noundef nonnull align 8 dereferenceable(16) %31, ptr noundef nonnull align 8 dereferenceable(16) %33)
  %34 = load ptr, ptr %3, align 8, !tbaa !204
  %35 = getelementptr inbounds nuw %struct.hb_bit_set_t, ptr %34, i32 0, i32 4
  %36 = load ptr, ptr %4, align 8, !tbaa !204
  %37 = getelementptr inbounds nuw %struct.hb_bit_set_t, ptr %36, i32 0, i32 4
  call void @"_ZNK3$_9clI11hb_vector_tI13hb_bit_page_tLb0EEEEvRT_S5_"(ptr noundef nonnull align 1 dereferenceable(1) @_ZL7hb_swap, ptr noundef nonnull align 8 dereferenceable(16) %35, ptr noundef nonnull align 8 dereferenceable(16) %37)
  br label %38

38:                                               ; preds = %21, %20
  ret void
}

; Function Attrs: mustprogress nounwind uwtable
define internal void @"_ZNK3$_9clI12hb_bit_set_tEEvRT_S3_"(ptr noundef nonnull align 1 dereferenceable(1) %0, ptr noundef nonnull align 8 dereferenceable(48) %1, ptr noundef nonnull align 8 dereferenceable(48) %2) #0 align 2 {
  %4 = alloca ptr, align 8
  %5 = alloca ptr, align 8
  %6 = alloca ptr, align 8
  store ptr %0, ptr %4, align 8, !tbaa !31
  store ptr %1, ptr %5, align 8, !tbaa !204
  store ptr %2, ptr %6, align 8, !tbaa !204
  %7 = load ptr, ptr %5, align 8, !tbaa !204
  %8 = load ptr, ptr %6, align 8, !tbaa !204
  call void @_Z4swapR12hb_bit_set_tS0_(ptr noundef nonnull align 8 dereferenceable(48) %7, ptr noundef nonnull align 8 dereferenceable(48) %8) #14
  ret void
}