; Function Attrs: mustprogress nofree norecurse nosync nounwind willreturn memory(argmem: readwrite) uwtable
define internal fastcc void @"_ZNK3$_9clI12hb_bit_set_tEEvRT_S3_"(ptr noundef nonnull align 8 captures(none) dereferenceable(48) %0, ptr noundef nonnull align 8 captures(none) dereferenceable(48) %1) unnamed_addr #12 align 2 {
  %3 = load i8, ptr %0, align 8, !tbaa !89, !range !31, !noundef !32
  %4 = trunc nuw i8 %3 to i1
  %5 = load i8, ptr %1, align 8, !range !31
  %6 = trunc nuw i8 %5 to i1
  %7 = select i1 %4, i1 %6, i1 false
  br i1 %7, label %8, label %_Z4swapR12hb_bit_set_tS0_.exit, !prof !7

8:                                                ; preds = %2
  %9 = getelementptr inbounds nuw i8, ptr %0, i64 4
  %10 = getelementptr inbounds nuw i8, ptr %1, i64 4
  %11 = load i32, ptr %9, align 4, !tbaa !56
  %12 = load i32, ptr %10, align 4, !tbaa !56
  store i32 %12, ptr %9, align 4, !tbaa !56
  store i32 %11, ptr %10, align 4, !tbaa !56
  %13 = getelementptr inbounds nuw i8, ptr %0, i64 8
  %14 = getelementptr inbounds nuw i8, ptr %1, i64 8
  %.sroa.0.0.copyload.i.i.i = load i32, ptr %13, align 8, !tbaa !56
  %15 = load i32, ptr %14, align 8, !tbaa !56
  store i32 %15, ptr %13, align 8, !tbaa !56
  store i32 %.sroa.0.0.copyload.i.i.i, ptr %14, align 8, !tbaa !56
  %16 = getelementptr inbounds nuw i8, ptr %0, i64 16
  %17 = getelementptr inbounds nuw i8, ptr %1, i64 16
  %18 = load i32, ptr %16, align 8, !tbaa !56
  %19 = load i32, ptr %17, align 8, !tbaa !56
  store i32 %19, ptr %16, align 8, !tbaa !56
  store i32 %18, ptr %17, align 8, !tbaa !56
  %20 = getelementptr inbounds nuw i8, ptr %0, i64 20
  %21 = getelementptr inbounds nuw i8, ptr %1, i64 20
  %22 = load i32, ptr %20, align 4, !tbaa !56
  %23 = load i32, ptr %21, align 4, !tbaa !56
  store i32 %23, ptr %20, align 4, !tbaa !56
  store i32 %22, ptr %21, align 4, !tbaa !56
  %24 = getelementptr inbounds nuw i8, ptr %0, i64 24
  %25 = getelementptr inbounds nuw i8, ptr %1, i64 24
  %26 = load ptr, ptr %24, align 8, !tbaa !856
  %27 = load ptr, ptr %25, align 8, !tbaa !856
  store ptr %27, ptr %24, align 8, !tbaa !856
  store ptr %26, ptr %25, align 8, !tbaa !856
  %28 = getelementptr inbounds nuw i8, ptr %0, i64 32
  %29 = getelementptr inbounds nuw i8, ptr %1, i64 32
  %30 = load i32, ptr %28, align 8, !tbaa !56
  %31 = load i32, ptr %29, align 8, !tbaa !56
  store i32 %31, ptr %28, align 8, !tbaa !56
  store i32 %30, ptr %29, align 8, !tbaa !56
  %32 = getelementptr inbounds nuw i8, ptr %0, i64 36
  %33 = getelementptr inbounds nuw i8, ptr %1, i64 36
  %34 = load i32, ptr %32, align 4, !tbaa !56
  %35 = load i32, ptr %33, align 4, !tbaa !56
  store i32 %35, ptr %32, align 4, !tbaa !56
  store i32 %34, ptr %33, align 4, !tbaa !56
  %36 = getelementptr inbounds nuw i8, ptr %0, i64 40
  %37 = getelementptr inbounds nuw i8, ptr %1, i64 40
  %38 = load ptr, ptr %36, align 8, !tbaa !857
  %39 = load ptr, ptr %37, align 8, !tbaa !857
  store ptr %39, ptr %36, align 8, !tbaa !857
  store ptr %38, ptr %37, align 8, !tbaa !857
  br label %_Z4swapR12hb_bit_set_tS0_.exit

_Z4swapR12hb_bit_set_tS0_.exit:                   ; preds = %2, %8
  ret void
}